target datalayout = "e-m:e-p270:32:32-p271:32:32-p272:64:64-i64:64-i128:128-f80:128-n8:16:32:64-S128"
target triple = "x86_64-pc-linux-gnu"

%class.btVector3 = type { [4 x float] }
%class.btTriangleCallback = type { ptr }
%class.btConcaveShape.base = type <{ %class.btCollisionShape, float }>
%class.btCollisionShape = type { ptr, i32, ptr, i32, i32 }
%struct.b3ProcessAllTrianglesHeightfield = type { %class.btTriangleCallback, ptr, ptr }
%class.btHeightfieldTerrainShape = type { %class.btConcaveShape.base, %class.btVector3, %class.btVector3, %class.btVector3, i32, i32, float, float, float, float, float, %union.anon.0, i32, i8, i8, i8, i8, i32, %class.btVector3, [4 x i8], %class.btAlignedObjectArray, i32, i32, i32, float, ptr }
%union.anon.0 = type { ptr }
%class.btAlignedObjectArray = type <{ [4 x i8], i32, i32, [4 x i8], ptr, i8, [7 x i8] }>

@_ZTV18btTriangleCallback = available_externally unnamed_addr constant { [5 x ptr] } { [5 x ptr] [ptr null, ptr @_ZTI18btTriangleCallback, ptr @_ZN18btTriangleCallbackD1Ev, ptr @_ZN18btTriangleCallbackD0Ev, ptr @__cxa_pure_virtual] }, align 8

; Function Attrs: inlinehint mustprogress nounwind uwtable
define linkonce_odr dso_local void @_ZN18btTriangleCallbackC2Ev(ptr noundef nonnull align 8 dereferenceable(8) %0) unnamed_addr #4 comdat align 2 {
  %2 = alloca ptr, align 8
  store ptr %0, ptr %2, align 8, !tbaa !134
  %3 = load ptr, ptr %2, align 8
  store ptr getelementptr inbounds inrange(-16, 24) ({ [5 x ptr] }, ptr @_ZTV18btTriangleCallback, i32 0, i32 0, i32 2), ptr %3, align 8, !tbaa !20
  ret void
}

; Function Attrs: mustprogress nounwind uwtable
define linkonce_odr dso_local void @_ZN32b3ProcessAllTrianglesHeightfieldC2EP25btHeightfieldTerrainShapeP17btTriangleInfoMap(ptr noundef nonnull align 8 dereferenceable(24) %0, ptr noundef %1, ptr noundef %2) unnamed_addr #1 comdat align 2 {
  %4 = alloca ptr, align 8
  %5 = alloca ptr, align 8
  %6 = alloca ptr, align 8
  store ptr %0, ptr %4, align 8, !tbaa !69
  store ptr %1, ptr %5, align 8, !tbaa !62
  store ptr %2, ptr %6, align 8, !tbaa !14
  %7 = load ptr, ptr %4, align 8
  call void @_ZN18btTriangleCallbackC2Ev(ptr noundef nonnull align 8 dereferenceable(8) %7) #14
  store ptr getelementptr inbounds inrange(-16, 24) ({ [5 x ptr] }, ptr @_ZTV32b3ProcessAllTrianglesHeightfield, i32 0, i32 0, i32 2), ptr %7, align 8, !tbaa !20
  %8 = getelementptr inbounds nuw %struct.b3ProcessAllTrianglesHeightfield, ptr %7, i32 0, i32 1
  %9 = load ptr, ptr %5, align 8, !tbaa !62
  store ptr %9, ptr %8, align 8, !tbaa !71
  %10 = getelementptr inbounds nuw %struct.b3ProcessAllTrianglesHeightfield, ptr %7, i32 0, i32 2
  %11 = load ptr, ptr %6, align 8, !tbaa !14
  store ptr %11, ptr %10, align 8, !tbaa !73
  ret void
}

; Function Attrs: inlinehint mustprogress nounwind uwtable
define linkonce_odr dso_local void @_ZN9btVector38setValueERKfS1_S1_(ptr noundef nonnull align 4 dereferenceable(16) %0, ptr noundef nonnull align 4 dereferenceable(4) %1, ptr noundef nonnull align 4 dereferenceable(4) %2, ptr noundef nonnull align 4 dereferenceable(4) %3) #4 comdat align 2 {
  %5 = alloca ptr, align 8
  %6 = alloca ptr, align 8
  %7 = alloca ptr, align 8
  %8 = alloca ptr, align 8
  store ptr %0, ptr %5, align 8, !tbaa !18
  store ptr %1, ptr %6, align 8, !tbaa !30
  store ptr %2, ptr %7, align 8, !tbaa !30
  store ptr %3, ptr %8, align 8, !tbaa !30
  %9 = load ptr, ptr %5, align 8
  %10 = load ptr, ptr %6, align 8, !tbaa !30
  %11 = load float, ptr %10, align 4, !tbaa !32
  %12 = getelementptr inbounds nuw %class.btVector3, ptr %9, i32 0, i32 0
  %13 = getelementptr inbounds [4 x float], ptr %12, i64 0, i64 0
  store float %11, ptr %13, align 4, !tbaa !32
  %14 = load ptr, ptr %7, align 8, !tbaa !30
  %15 = load float, ptr %14, align 4, !tbaa !32
  %16 = getelementptr inbounds nuw %class.btVector3, ptr %9, i32 0, i32 0
  %17 = getelementptr inbounds [4 x float], ptr %16, i64 0, i64 1
  store float %15, ptr %17, align 4, !tbaa !32
  %18 = load ptr, ptr %8, align 8, !tbaa !30
  %19 = load float, ptr %18, align 4, !tbaa !32
  %20 = getelementptr inbounds nuw %class.btVector3, ptr %9, i32 0, i32 0
  %21 = getelementptr inbounds [4 x float], ptr %20, i64 0, i64 2
  store float %19, ptr %21, align 4, !tbaa !32
  %22 = getelementptr inbounds nuw %class.btVector3, ptr %9, i32 0, i32 0
  %23 = getelementptr inbounds [4 x float], ptr %22, i64 0, i64 3
  store float 0.000000e+00, ptr %23, align 4, !tbaa !32
  ret void
}

; Function Attrs: inlinehint mustprogress nounwind uwtable
define linkonce_odr dso_local void @_ZN9btVector3C2Ev(ptr noundef nonnull align 4 dereferenceable(16) %0) unnamed_addr #4 comdat align 2 {
  %2 = alloca ptr, align 8
  store ptr %0, ptr %2, align 8, !tbaa !18
  ret void
}

; Function Attrs: mustprogress nounwind uwtable
define linkonce_odr dso_local void @_ZN25btHeightfieldTerrainShape18setTriangleInfoMapEP17btTriangleInfoMap(ptr noundef nonnull align 8 dereferenceable(208) %0, ptr noundef %1) #1 comdat align 2 {
  %3 = alloca ptr, align 8
  %4 = alloca ptr, align 8
  store ptr %0, ptr %3, align 8, !tbaa !62
  store ptr %1, ptr %4, align 8, !tbaa !14
  %5 = load ptr, ptr %3, align 8
  %6 = load ptr, ptr %4, align 8, !tbaa !14
  %7 = getelementptr inbounds nuw %class.btHeightfieldTerrainShape, ptr %5, i32 0, i32 25
  store ptr %6, ptr %7, align 8, !tbaa !64
  ret void
}

; Function Attrs: mustprogress nounwind uwtable
define linkonce_odr dso_local noundef ptr @_ZN25btHeightfieldTerrainShape18getTriangleInfoMapEv(ptr noundef nonnull align 8 dereferenceable(208) %0) #1 comdat align 2 {
  %2 = alloca ptr, align 8
  store ptr %0, ptr %2, align 8, !tbaa !62
  %3 = load ptr, ptr %2, align 8
  %4 = getelementptr inbounds nuw %class.btHeightfieldTerrainShape, ptr %3, i32 0, i32 25
  %5 = load ptr, ptr %4, align 8, !tbaa !64
  ret ptr %5
}

; Function Attrs: mustprogress uwtable
define dso_local void @_Z26btGenerateInternalEdgeInfoP25btHeightfieldTerrainShapeP17btTriangleInfoMap(ptr noundef %0, ptr noundef %1) #2 personality ptr @__gxx_personality_v0 {
  %3 = alloca ptr, align 8
  %4 = alloca ptr, align 8
  %5 = alloca %class.btVector3, align 4
  %6 = alloca %class.btVector3, align 4
  %7 = alloca float, align 4
  %8 = alloca float, align 4
  %9 = alloca float, align 4
  %10 = alloca float, align 4
  %11 = alloca float, align 4
  %12 = alloca float, align 4
  %13 = alloca %struct.b3ProcessAllTrianglesHeightfield, align 8
  %14 = alloca ptr, align 8
  %15 = alloca i32, align 4
  store ptr %0, ptr %3, align 8, !tbaa !62
  store ptr %1, ptr %4, align 8, !tbaa !14
  %16 = load ptr, ptr %3, align 8, !tbaa !62
  %17 = call noundef ptr @_ZN25btHeightfieldTerrainShape18getTriangleInfoMapEv(ptr noundef nonnull align 8 dereferenceable(208) %16)
  %18 = icmp ne ptr %17, null
  br i1 %18, label %19, label %20

19:                                               ; preds = %2
  br label %30

20:                                               ; preds = %2
  %21 = load ptr, ptr %3, align 8, !tbaa !62
  %22 = load ptr, ptr %4, align 8, !tbaa !14
  call void @_ZN25btHeightfieldTerrainShape18setTriangleInfoMapEP17btTriangleInfoMap(ptr noundef nonnull align 8 dereferenceable(208) %21, ptr noundef %22)
  call void @llvm.lifetime.start.p0(i64 16, ptr %5) #14
  call void @_ZN9btVector3C2Ev(ptr noundef nonnull align 4 dereferenceable(16) %5)
  call void @llvm.lifetime.start.p0(i64 16, ptr %6) #14
  call void @_ZN9btVector3C2Ev(ptr noundef nonnull align 4 dereferenceable(16) %6)
  call void @llvm.lifetime.start.p0(i64 4, ptr %7) #14
  store float 0x43ABC16D60000000, ptr %7, align 4, !tbaa !32
  call void @llvm.lifetime.start.p0(i64 4, ptr %8) #14
  store float 0x43ABC16D60000000, ptr %8, align 4, !tbaa !32
  call void @llvm.lifetime.start.p0(i64 4, ptr %9) #14
  store float 0x43ABC16D60000000, ptr %9, align 4, !tbaa !32
  call void @_ZN9btVector38setValueERKfS1_S1_(ptr noundef nonnull align 4 dereferenceable(16) %6, ptr noundef nonnull align 4 dereferenceable(4) %7, ptr noundef nonnull align 4 dereferenceable(4) %8, ptr noundef nonnull align 4 dereferenceable(4) %9)
  call void @llvm.lifetime.end.p0(i64 4, ptr %9) #14
  call void @llvm.lifetime.end.p0(i64 4, ptr %8) #14
  call void @llvm.lifetime.end.p0(i64 4, ptr %7) #14
  call void @llvm.lifetime.start.p0(i64 4, ptr %10) #14
  store float 0xC3ABC16D60000000, ptr %10, align 4, !tbaa !32
  call void @llvm.lifetime.start.p0(i64 4, ptr %11) #14
  store float 0xC3ABC16D60000000, ptr %11, align 4, !tbaa !32
  call void @llvm.lifetime.start.p0(i64 4, ptr %12) #14
  store float 0xC3ABC16D60000000, ptr %12, align 4, !tbaa !32
  call void @_ZN9btVector38setValueERKfS1_S1_(ptr noundef nonnull align 4 dereferenceable(16) %5, ptr noundef nonnull align 4 dereferenceable(4) %10, ptr noundef nonnull align 4 dereferenceable(4) %11, ptr noundef nonnull align 4 dereferenceable(4) %12)
  call void @llvm.lifetime.end.p0(i64 4, ptr %12) #14
  call void @llvm.lifetime.end.p0(i64 4, ptr %11) #14
  call void @llvm.lifetime.end.p0(i64 4, ptr %10) #14
  call void @llvm.lifetime.start.p0(i64 24, ptr %13) #14
  %23 = load ptr, ptr %3, align 8, !tbaa !62
  %24 = load ptr, ptr %4, align 8, !tbaa !14
  call void @_ZN32b3ProcessAllTrianglesHeightfieldC2EP25btHeightfieldTerrainShapeP17btTriangleInfoMap(ptr noundef nonnull align 8 dereferenceable(24) %13, ptr noundef %23, ptr noundef %24)
  %25 = load ptr, ptr %3, align 8, !tbaa !62
  %26 = load ptr, ptr %25, align 8, !tbaa !20
  %27 = getelementptr inbounds ptr, ptr %26, i64 16
  %28 = load ptr, ptr %27, align 8
  invoke void %28(ptr noundef nonnull align 8 dereferenceable(208) %25, ptr noundef %13, ptr noundef nonnull align 4 dereferenceable(16) %5, ptr noundef nonnull align 4 dereferenceable(16) %6)
          to label %29 unwind label %31

29:                                               ; preds = %20
  call void @_ZN18btTriangleCallbackD2Ev(ptr noundef nonnull align 8 dereferenceable(24) %13) #14
  call void @llvm.lifetime.end.p0(i64 24, ptr %13) #14
  call void @llvm.lifetime.end.p0(i64 16, ptr %6) #14
  call void @llvm.lifetime.end.p0(i64 16, ptr %5) #14
  br label %30

30:                                               ; preds = %29, %19
  ret void

31:                                               ; preds = %20
  %32 = landingpad { ptr, i32 }
          cleanup
  %33 = extractvalue { ptr, i32 } %32, 0
  store ptr %33, ptr %14, align 8
  %34 = extractvalue { ptr, i32 } %32, 1
  store i32 %34, ptr %15, align 4
  call void @_ZN18btTriangleCallbackD2Ev(ptr noundef nonnull align 8 dereferenceable(24) %13) #14
  call void @llvm.lifetime.end.p0(i64 24, ptr %13) #14
  call void @llvm.lifetime.end.p0(i64 16, ptr %6) #14
  call void @llvm.lifetime.end.p0(i64 16, ptr %5) #14
  br label %35

35:                                               ; preds = %31
  %36 = load ptr, ptr %14, align 8
  %37 = load i32, ptr %15, align 4
  %38 = insertvalue { ptr, i32 } poison, ptr %36, 0
  %39 = insertvalue { ptr, i32 } %38, i32 %37, 1
  resume { ptr, i32 } %39
}