; Function Attrs: mustprogress uwtable
define dso_local void @_Z26btGenerateInternalEdgeInfoP25btHeightfieldTerrainShapeP17btTriangleInfoMap(ptr noundef %0, ptr noundef %1) local_unnamed_addr #0 personality ptr @__gxx_personality_v0 {
  %3 = alloca %class.btVector3, align 4
  %4 = alloca %class.btVector3, align 4
  %5 = alloca %struct.b3ProcessAllTrianglesHeightfield, align 8
  %6 = getelementptr inbounds nuw i8, ptr %0, i64 200
  %7 = load ptr, ptr %6, align 8, !tbaa !44
  %.not = icmp eq ptr %7, null
  br i1 %.not, label %8, label %21

8:                                                ; preds = %2
  store ptr %1, ptr %6, align 8, !tbaa !44
  call void @llvm.lifetime.start.p0(i64 16, ptr nonnull %3) #19
  call void @llvm.lifetime.start.p0(i64 16, ptr nonnull %4) #19
  store float 0x43ABC16D60000000, ptr %4, align 4, !tbaa !32
  %9 = getelementptr inbounds nuw i8, ptr %4, i64 4
  store float 0x43ABC16D60000000, ptr %9, align 4, !tbaa !32
  %10 = getelementptr inbounds nuw i8, ptr %4, i64 8
  store float 0x43ABC16D60000000, ptr %10, align 4, !tbaa !32
  %11 = getelementptr inbounds nuw i8, ptr %4, i64 12
  store float 0.000000e+00, ptr %11, align 4, !tbaa !32
  store float 0xC3ABC16D60000000, ptr %3, align 4, !tbaa !32
  %12 = getelementptr inbounds nuw i8, ptr %3, i64 4
  store float 0xC3ABC16D60000000, ptr %12, align 4, !tbaa !32
  %13 = getelementptr inbounds nuw i8, ptr %3, i64 8
  store float 0xC3ABC16D60000000, ptr %13, align 4, !tbaa !32
  %14 = getelementptr inbounds nuw i8, ptr %3, i64 12
  store float 0.000000e+00, ptr %14, align 4, !tbaa !32
  call void @llvm.lifetime.start.p0(i64 24, ptr nonnull %5) #19
  store ptr getelementptr inbounds nuw inrange(-16, 24) (i8, ptr @_ZTV32b3ProcessAllTrianglesHeightfield, i64 16), ptr %5, align 8, !tbaa !20
  %15 = getelementptr inbounds nuw i8, ptr %5, i64 8
  store ptr %0, ptr %15, align 8, !tbaa !49
  %16 = getelementptr inbounds nuw i8, ptr %5, i64 16
  store ptr %1, ptr %16, align 8, !tbaa !52
  %17 = load ptr, ptr %0, align 8, !tbaa !20
  %18 = getelementptr inbounds nuw i8, ptr %17, i64 128
  %19 = load ptr, ptr %18, align 8
  invoke void %19(ptr noundef nonnull align 8 dereferenceable(208) %0, ptr noundef nonnull %5, ptr noundef nonnull align 4 dereferenceable(16) %3, ptr noundef nonnull align 4 dereferenceable(16) %4)
          to label %20 unwind label %22

20:                                               ; preds = %8
  call void @_ZN18btTriangleCallbackD2Ev(ptr noundef nonnull align 8 dereferenceable(24) %5) #19
  call void @llvm.lifetime.end.p0(i64 24, ptr nonnull %5) #19
  call void @llvm.lifetime.end.p0(i64 16, ptr nonnull %4) #19
  call void @llvm.lifetime.end.p0(i64 16, ptr nonnull %3) #19
  br label %21

21:                                               ; preds = %2, %20
  ret void

22:                                               ; preds = %8
  %23 = landingpad { ptr, i32 }
          cleanup
  call void @_ZN18btTriangleCallbackD2Ev(ptr noundef nonnull align 8 dereferenceable(24) %5) #19
  call void @llvm.lifetime.end.p0(i64 24, ptr nonnull %5) #19
  call void @llvm.lifetime.end.p0(i64 16, ptr nonnull %4) #19
  call void @llvm.lifetime.end.p0(i64 16, ptr nonnull %3) #19
  resume { ptr, i32 } %23
}